; Function Attrs: mustprogress uwtable
define void @_ZN7Imf_3_46HeaderC2EOS0_(ptr noundef nonnull align 8 dereferenceable(49) initializes((16, 24)) %0, ptr noundef nonnull align 8 dereferenceable(49) %1) unnamed_addr #5 align 2 personality ptr @__gxx_personality_v0 {
  %3 = getelementptr inbounds nuw i8, ptr %0, i64 8
  %4 = getelementptr inbounds nuw i8, ptr %1, i64 16
  %5 = load ptr, ptr %4, align 8, !tbaa !35
  %.not.i.i.i.i = icmp eq ptr %5, null
  br i1 %.not.i.i.i.i, label %20, label %6

6:                                                ; preds = %2
  %7 = getelementptr inbounds nuw i8, ptr %1, i64 8
  %8 = load i32, ptr %7, align 8, !tbaa !34
  %9 = getelementptr inbounds nuw i8, ptr %0, i64 16
  store ptr %5, ptr %9, align 8, !tbaa !35
  %10 = getelementptr inbounds nuw i8, ptr %1, i64 24
  %11 = load ptr, ptr %10, align 8, !tbaa !3
  %12 = getelementptr inbounds nuw i8, ptr %0, i64 24
  store ptr %11, ptr %12, align 8, !tbaa !3
  %13 = getelementptr inbounds nuw i8, ptr %1, i64 32
  %14 = load ptr, ptr %13, align 8, !tbaa !12
  %15 = getelementptr inbounds nuw i8, ptr %0, i64 32
  store ptr %14, ptr %15, align 8, !tbaa !12
  %16 = getelementptr inbounds nuw i8, ptr %5, i64 8
  store ptr %3, ptr %16, align 8, !tbaa !56
  %17 = getelementptr inbounds nuw i8, ptr %1, i64 40
  %18 = load i64, ptr %17, align 8, !tbaa !13
  %19 = getelementptr inbounds nuw i8, ptr %0, i64 40
  store i64 %18, ptr %19, align 8, !tbaa !13
  store ptr null, ptr %4, align 8, !tbaa !35
  store ptr %7, ptr %10, align 8, !tbaa !3
  store ptr %7, ptr %13, align 8, !tbaa !12
  store i64 0, ptr %17, align 8, !tbaa !13
  br label %_ZNSt3mapIN7Imf_3_44NameEPNS0_9AttributeESt4lessIS1_ESaISt4pairIKS1_S3_EEEC2EOSA_.exit

20:                                               ; preds = %2
  %21 = getelementptr inbounds nuw i8, ptr %0, i64 16
  store ptr null, ptr %21, align 8, !tbaa !35
  %22 = getelementptr inbounds nuw i8, ptr %0, i64 24
  store ptr %3, ptr %22, align 8, !tbaa !3
  %23 = getelementptr inbounds nuw i8, ptr %0, i64 32
  store ptr %3, ptr %23, align 8, !tbaa !12
  %24 = getelementptr inbounds nuw i8, ptr %0, i64 40
  store i64 0, ptr %24, align 8, !tbaa !13
  br label %_ZNSt3mapIN7Imf_3_44NameEPNS0_9AttributeESt4lessIS1_ESaISt4pairIKS1_S3_EEEC2EOSA_.exit

_ZNSt3mapIN7Imf_3_44NameEPNS0_9AttributeESt4lessIS1_ESaISt4pairIKS1_S3_EEEC2EOSA_.exit: ; preds = %6, %20
  %.sink.i.i.i.i = phi i32 [ 0, %20 ], [ %8, %6 ]
  store i32 %.sink.i.i.i.i, ptr %3, align 8, !tbaa !34
  %25 = getelementptr inbounds nuw i8, ptr %0, i64 48
  %26 = getelementptr inbounds nuw i8, ptr %1, i64 48
  %27 = load i8, ptr %26, align 8, !tbaa !14, !range !36, !noundef !37
  store i8 %27, ptr %25, align 8, !tbaa !14
  invoke fastcc void @_ZN7Imf_3_412_GLOBAL__N_121copyCompressionRecordEPNS_6HeaderEPKS1_(ptr noundef %0, ptr noundef %1)
          to label %28 unwind label %29

28:                                               ; preds = %_ZNSt3mapIN7Imf_3_44NameEPNS0_9AttributeESt4lessIS1_ESaISt4pairIKS1_S3_EEEC2EOSA_.exit
  ret void

29:                                               ; preds = %_ZNSt3mapIN7Imf_3_44NameEPNS0_9AttributeESt4lessIS1_ESaISt4pairIKS1_S3_EEEC2EOSA_.exit
  %30 = landingpad { ptr, i32 }
          cleanup
  tail call void @_ZNSt3mapIN7Imf_3_44NameEPNS0_9AttributeESt4lessIS1_ESaISt4pairIKS1_S3_EEED2Ev(ptr noundef nonnull align 8 dereferenceable(48) %0) #29
  resume { ptr, i32 } %30
}